target datalayout = "e-m:e-p270:32:32-p271:32:32-p272:64:64-i64:64-i128:128-f80:128-n8:16:32:64-S128"
target triple = "x86_64-pc-linux-gnu"

%class.Jipopt = type { %"class.Ipopt::TNLP.base", ptr, ptr, i32, i32, i32, i32, i32, ptr, ptr, ptr, ptr, ptr, ptr, ptr, ptr, ptr, i8, i8, %"class.Ipopt::SmartPtr", ptr, ptr, ptr, ptr, ptr, ptr, ptr, ptr, ptr, ptr, ptr }
%"class.Ipopt::TNLP.base" = type { %"class.Ipopt::ReferencedObject.base" }
%"class.Ipopt::ReferencedObject.base" = type <{ ptr, i32 }>
%"class.Ipopt::SmartPtr" = type { ptr }

; Function Attrs: mustprogress uwtable
define noundef i32 @_ZN6Jipopt33get_number_of_nonlinear_variablesEv(ptr noundef nonnull align 8 dereferenceable(232) %0) unnamed_addr #4 align 2 {
  %2 = alloca i32, align 4
  %3 = alloca ptr, align 8
  store ptr %0, ptr %3, align 8, !tbaa !3
  %4 = load ptr, ptr %3, align 8
  %5 = getelementptr inbounds nuw %class.Jipopt, ptr %4, i32 0, i32 18
  %6 = load i8, ptr %5, align 1, !tbaa !40
  %7 = icmp ne i8 %6, 0
  br i1 %7, label %8, label %16

8:                                                ; preds = %1
  %9 = getelementptr inbounds nuw %class.Jipopt, ptr %4, i32 0, i32 1
  %10 = load ptr, ptr %9, align 8, !tbaa !16
  %11 = getelementptr inbounds nuw %class.Jipopt, ptr %4, i32 0, i32 2
  %12 = load ptr, ptr %11, align 8, !tbaa !24
  %13 = getelementptr inbounds nuw %class.Jipopt, ptr %4, i32 0, i32 29
  %14 = load ptr, ptr %13, align 8, !tbaa !52
  %15 = call noundef i32 (ptr, ptr, ptr, ...) @_ZN7JNIEnv_13CallIntMethodEP8_jobjectP10_jmethodIDz(ptr noundef nonnull align 8 dereferenceable(8) %10, ptr noundef %12, ptr noundef %14)
  store i32 %15, ptr %2, align 4
  br label %17

16:                                               ; preds = %1
  store i32 -1, ptr %2, align 4
  br label %17

17:                                               ; preds = %16, %8
  %18 = load i32, ptr %2, align 4
  ret i32 %18
}