; Function Attrs: mustprogress uwtable
define noundef i32 @_ZN6Jipopt33get_number_of_nonlinear_variablesEv(ptr noundef nonnull readonly align 8 captures(none) dereferenceable(232) %0) unnamed_addr #3 align 2 {
  %2 = getelementptr inbounds nuw i8, ptr %0, i64 129
  %3 = load i8, ptr %2, align 1, !tbaa !113
  %.not = icmp eq i8 %3, 0
  br i1 %.not, label %12, label %4

4:                                                ; preds = %1
  %5 = getelementptr inbounds nuw i8, ptr %0, i64 16
  %6 = load ptr, ptr %5, align 8, !tbaa !10
  %7 = getelementptr inbounds nuw i8, ptr %0, i64 24
  %8 = load ptr, ptr %7, align 8, !tbaa !20
  %9 = getelementptr inbounds nuw i8, ptr %0, i64 216
  %10 = load ptr, ptr %9, align 8, !tbaa !63
  %11 = tail call noundef i32 (ptr, ptr, ptr, ...) @_ZN7JNIEnv_13CallIntMethodEP8_jobjectP10_jmethodIDz(ptr noundef nonnull align 8 dereferenceable(8) %6, ptr noundef %8, ptr noundef %10)
  br label %12

12:                                               ; preds = %1, %4
  %.0 = phi i32 [ %11, %4 ], [ -1, %1 ]
  ret i32 %.0
}